; Function Attrs: mustprogress uwtable
define internal fastcc noundef zeroext i1 @_ZNK32pxrInternal_v0_24__pxrReserved__12_GLOBAL__N_113_CompareSkelsclERKNS_15UsdSkelSkeletonES4_(ptr noundef nonnull align 8 dereferenceable(24) %0, ptr noundef nonnull align 8 dereferenceable(24) %1) unnamed_addr #0 align 2 personality ptr @__gxx_personality_v0 {
  %3 = alloca %"class.pxrInternal_v0_24__pxrReserved__::UsdPrim", align 8
  %4 = alloca %"class.pxrInternal_v0_24__pxrReserved__::UsdPrim", align 8
  %5 = getelementptr inbounds nuw i8, ptr %0, i64 8
  %6 = getelementptr inbounds nuw i8, ptr %0, i64 16
  call void @_ZN32pxrInternal_v0_24__pxrReserved__9UsdObjectC2ERKNS_18Usd_PrimDataHandleERKNS_7SdfPathE(ptr noundef nonnull align 8 dereferenceable(32) %3, ptr noundef nonnull align 8 dereferenceable(8) %5, ptr noundef nonnull align 4 dereferenceable(8) %6)
  %7 = getelementptr inbounds nuw i8, ptr %1, i64 8
  %8 = getelementptr inbounds nuw i8, ptr %1, i64 16
  invoke void @_ZN32pxrInternal_v0_24__pxrReserved__9UsdObjectC2ERKNS_18Usd_PrimDataHandleERKNS_7SdfPathE(ptr noundef nonnull align 8 dereferenceable(32) %4, ptr noundef nonnull align 8 dereferenceable(8) %7, ptr noundef nonnull align 4 dereferenceable(8) %8)
          to label %_ZNK32pxrInternal_v0_24__pxrReserved__13UsdSchemaBase7GetPrimEv.exit unwind label %77

_ZNK32pxrInternal_v0_24__pxrReserved__13UsdSchemaBase7GetPrimEv.exit: ; preds = %2
  %9 = invoke noundef zeroext i1 @_ZN32pxrInternal_v0_24__pxrReserved__ltERKNS_9UsdObjectES2_(ptr noundef nonnull align 8 dereferenceable(32) %3, ptr noundef nonnull align 8 dereferenceable(32) %4)
          to label %10 unwind label %79

10:                                               ; preds = %_ZNK32pxrInternal_v0_24__pxrReserved__13UsdSchemaBase7GetPrimEv.exit
  %11 = getelementptr inbounds nuw i8, ptr %4, i64 24
  %12 = load ptr, ptr %11, align 8
  %13 = ptrtoint ptr %12 to i64
  %14 = and i64 %13, 7
  %.not.i.i.i.i = icmp eq i64 %14, 0
  br i1 %.not.i.i.i.i, label %_ZN32pxrInternal_v0_24__pxrReserved__7TfTokenD2Ev.exit.i.i, label %15

15:                                               ; preds = %10
  %16 = and i64 %13, -8
  %17 = inttoptr i64 %16 to ptr
  %18 = atomicrmw sub ptr %17, i32 2 release, align 4
  br label %_ZN32pxrInternal_v0_24__pxrReserved__7TfTokenD2Ev.exit.i.i

_ZN32pxrInternal_v0_24__pxrReserved__7TfTokenD2Ev.exit.i.i: ; preds = %15, %10
  %19 = getelementptr inbounds nuw i8, ptr %4, i64 16
  %20 = load i32, ptr %19, align 8
  %.not.i.i1.i.i = icmp eq i32 %20, 0
  br i1 %.not.i.i1.i.i, label %_ZN32pxrInternal_v0_24__pxrReserved__7SdfPathD2Ev.exit.i.i, label %21

21:                                               ; preds = %_ZN32pxrInternal_v0_24__pxrReserved__7TfTokenD2Ev.exit.i.i
  %22 = and i32 %20, 255
  %23 = lshr i32 %20, 8
  %24 = zext nneg i32 %22 to i64
  %25 = getelementptr inbounds [257 x ptr], ptr @_ZN32pxrInternal_v0_24__pxrReserved__8Sdf_PoolINS_15Sdf_PathPrimTagELj24ELj8ELj16384EE13_regionStartsE, i64 0, i64 %24
  %26 = load ptr, ptr %25, align 8
  %27 = mul nuw nsw i32 %23, 24
  %28 = zext nneg i32 %27 to i64
  %29 = getelementptr inbounds i8, ptr %26, i64 %28
  %30 = getelementptr inbounds nuw i8, ptr %29, i64 8
  %31 = atomicrmw sub ptr %30, i32 1 seq_cst, align 4
  %32 = and i32 %31, 2147483647
  %33 = icmp eq i32 %32, 1
  br i1 %33, label %34, label %_ZN32pxrInternal_v0_24__pxrReserved__7SdfPathD2Ev.exit.i.i

34:                                               ; preds = %21
  invoke void @_ZNK32pxrInternal_v0_24__pxrReserved__12Sdf_PathNode8_DestroyEv(ptr noundef nonnull align 8 dereferenceable(16) %29)
          to label %_ZN32pxrInternal_v0_24__pxrReserved__7SdfPathD2Ev.exit.i.i unwind label %35

35:                                               ; preds = %34
  %36 = landingpad { ptr, i32 }
          catch ptr null
  %37 = extractvalue { ptr, i32 } %36, 0
  call void @__clang_call_terminate(ptr %37) #17
  unreachable

_ZN32pxrInternal_v0_24__pxrReserved__7SdfPathD2Ev.exit.i.i: ; preds = %34, %21, %_ZN32pxrInternal_v0_24__pxrReserved__7TfTokenD2Ev.exit.i.i
  %38 = getelementptr inbounds nuw i8, ptr %4, i64 8
  %39 = load ptr, ptr %38, align 8
  %.not.i.i.i.i.i = icmp eq ptr %39, null
  br i1 %.not.i.i.i.i.i, label %_ZN32pxrInternal_v0_24__pxrReserved__7UsdPrimD2Ev.exit, label %40

40:                                               ; preds = %_ZN32pxrInternal_v0_24__pxrReserved__7SdfPathD2Ev.exit.i.i
  %41 = getelementptr inbounds nuw i8, ptr %39, i64 48
  %42 = atomicrmw sub ptr %41, i64 1 release, align 8
  %.not1.i.i.i.i.i = icmp eq i64 %42, 1
  br i1 %.not1.i.i.i.i.i, label %43, label %_ZN32pxrInternal_v0_24__pxrReserved__7UsdPrimD2Ev.exit

43:                                               ; preds = %40
  call void @_ZN32pxrInternal_v0_24__pxrReserved__12Usd_PrimDataD1Ev(ptr noundef nonnull align 8 dereferenceable(64) %39) #18
  call void @_ZdlPvm(ptr noundef nonnull %39, i64 noundef 64) #19
  br label %_ZN32pxrInternal_v0_24__pxrReserved__7UsdPrimD2Ev.exit

_ZN32pxrInternal_v0_24__pxrReserved__7UsdPrimD2Ev.exit: ; preds = %_ZN32pxrInternal_v0_24__pxrReserved__7SdfPathD2Ev.exit.i.i, %40, %43
  %44 = getelementptr inbounds nuw i8, ptr %3, i64 24
  %45 = load ptr, ptr %44, align 8
  %46 = ptrtoint ptr %45 to i64
  %47 = and i64 %46, 7
  %.not.i.i.i.i5 = icmp eq i64 %47, 0
  br i1 %.not.i.i.i.i5, label %_ZN32pxrInternal_v0_24__pxrReserved__7TfTokenD2Ev.exit.i.i6, label %48

48:                                               ; preds = %_ZN32pxrInternal_v0_24__pxrReserved__7UsdPrimD2Ev.exit
  %49 = and i64 %46, -8
  %50 = inttoptr i64 %49 to ptr
  %51 = atomicrmw sub ptr %50, i32 2 release, align 4
  br label %_ZN32pxrInternal_v0_24__pxrReserved__7TfTokenD2Ev.exit.i.i6

_ZN32pxrInternal_v0_24__pxrReserved__7TfTokenD2Ev.exit.i.i6: ; preds = %48, %_ZN32pxrInternal_v0_24__pxrReserved__7UsdPrimD2Ev.exit
  %52 = getelementptr inbounds nuw i8, ptr %3, i64 16
  %53 = load i32, ptr %52, align 8
  %.not.i.i1.i.i7 = icmp eq i32 %53, 0
  br i1 %.not.i.i1.i.i7, label %_ZN32pxrInternal_v0_24__pxrReserved__7SdfPathD2Ev.exit.i.i8, label %54

54:                                               ; preds = %_ZN32pxrInternal_v0_24__pxrReserved__7TfTokenD2Ev.exit.i.i6
  %55 = and i32 %53, 255
  %56 = lshr i32 %53, 8
  %57 = zext nneg i32 %55 to i64
  %58 = getelementptr inbounds [257 x ptr], ptr @_ZN32pxrInternal_v0_24__pxrReserved__8Sdf_PoolINS_15Sdf_PathPrimTagELj24ELj8ELj16384EE13_regionStartsE, i64 0, i64 %57
  %59 = load ptr, ptr %58, align 8
  %60 = mul nuw nsw i32 %56, 24
  %61 = zext nneg i32 %60 to i64
  %62 = getelementptr inbounds i8, ptr %59, i64 %61
  %63 = getelementptr inbounds nuw i8, ptr %62, i64 8
  %64 = atomicrmw sub ptr %63, i32 1 seq_cst, align 4
  %65 = and i32 %64, 2147483647
  %66 = icmp eq i32 %65, 1
  br i1 %66, label %67, label %_ZN32pxrInternal_v0_24__pxrReserved__7SdfPathD2Ev.exit.i.i8

67:                                               ; preds = %54
  invoke void @_ZNK32pxrInternal_v0_24__pxrReserved__12Sdf_PathNode8_DestroyEv(ptr noundef nonnull align 8 dereferenceable(16) %62)
          to label %_ZN32pxrInternal_v0_24__pxrReserved__7SdfPathD2Ev.exit.i.i8 unwind label %68

68:                                               ; preds = %67
  %69 = landingpad { ptr, i32 }
          catch ptr null
  %70 = extractvalue { ptr, i32 } %69, 0
  call void @__clang_call_terminate(ptr %70) #17
  unreachable

_ZN32pxrInternal_v0_24__pxrReserved__7SdfPathD2Ev.exit.i.i8: ; preds = %67, %54, %_ZN32pxrInternal_v0_24__pxrReserved__7TfTokenD2Ev.exit.i.i6
  %71 = getelementptr inbounds nuw i8, ptr %3, i64 8
  %72 = load ptr, ptr %71, align 8
  %.not.i.i.i.i.i9 = icmp eq ptr %72, null
  br i1 %.not.i.i.i.i.i9, label %_ZN32pxrInternal_v0_24__pxrReserved__7UsdPrimD2Ev.exit11, label %73

73:                                               ; preds = %_ZN32pxrInternal_v0_24__pxrReserved__7SdfPathD2Ev.exit.i.i8
  %74 = getelementptr inbounds nuw i8, ptr %72, i64 48
  %75 = atomicrmw sub ptr %74, i64 1 release, align 8
  %.not1.i.i.i.i.i10 = icmp eq i64 %75, 1
  br i1 %.not1.i.i.i.i.i10, label %76, label %_ZN32pxrInternal_v0_24__pxrReserved__7UsdPrimD2Ev.exit11

76:                                               ; preds = %73
  call void @_ZN32pxrInternal_v0_24__pxrReserved__12Usd_PrimDataD1Ev(ptr noundef nonnull align 8 dereferenceable(64) %72) #18
  call void @_ZdlPvm(ptr noundef nonnull %72, i64 noundef 64) #19
  br label %_ZN32pxrInternal_v0_24__pxrReserved__7UsdPrimD2Ev.exit11

_ZN32pxrInternal_v0_24__pxrReserved__7UsdPrimD2Ev.exit11: ; preds = %_ZN32pxrInternal_v0_24__pxrReserved__7SdfPathD2Ev.exit.i.i8, %73, %76
  ret i1 %9

77:                                               ; preds = %2
  %78 = landingpad { ptr, i32 }
          cleanup
  br label %81

79:                                               ; preds = %_ZNK32pxrInternal_v0_24__pxrReserved__13UsdSchemaBase7GetPrimEv.exit
  %80 = landingpad { ptr, i32 }
          cleanup
  call void @_ZN32pxrInternal_v0_24__pxrReserved__7UsdPrimD2Ev(ptr noundef nonnull align 8 dereferenceable(32) %4) #18
  br label %81

81:                                               ; preds = %79, %77
  %.pn = phi { ptr, i32 } [ %80, %79 ], [ %78, %77 ]
  call void @_ZN32pxrInternal_v0_24__pxrReserved__7UsdPrimD2Ev(ptr noundef nonnull align 8 dereferenceable(32) %3) #18
  resume { ptr, i32 } %.pn
}